; Function Attrs: mustprogress nounwind uwtable
define dso_local void @_ZN4llvm14MCWasmStreamer14emitLabelAtPosEPNS_8MCSymbolENS_5SMLocERNS_14MCDataFragmentEm(ptr noundef nonnull align 8 dereferenceable(425) %0, ptr noundef %1, ptr %2, ptr noundef nonnull align 8 dereferenceable(208) %3, i64 noundef %4) unnamed_addr #0 align 2 {
  tail call void @_ZN4llvm16MCObjectStreamer14emitLabelAtPosEPNS_8MCSymbolENS_5SMLocERNS_14MCDataFragmentEm(ptr noundef nonnull align 8 dereferenceable(424) %0, ptr noundef %1, ptr %2, ptr noundef nonnull align 8 dereferenceable(208) %3, i64 noundef %4) #12
  %6 = getelementptr inbounds nuw i8, ptr %0, i64 280
  %7 = load ptr, ptr %6, align 8
  %8 = getelementptr inbounds nuw i8, ptr %7, i64 8
  %9 = load ptr, ptr %8, align 8
  %10 = getelementptr inbounds nuw i8, ptr %9, i64 176
  %11 = load i32, ptr %10, align 8
  %12 = and i32 %11, 2
  %.not = icmp eq i32 %12, 0
  br i1 %.not, label %17, label %13

13:                                               ; preds = %5
  %14 = getelementptr inbounds nuw i8, ptr %1, i64 8
  %15 = load i64, ptr %14, align 8
  %16 = or i64 %15, 1099511627776
  store i64 %16, ptr %14, align 8
  br label %17

17:                                               ; preds = %13, %5
  ret void
}